target datalayout = "e-m:e-p270:32:32-p271:32:32-p272:64:64-i64:64-i128:128-f80:128-n8:16:32:64-S128"
target triple = "x86_64-pc-linux-gnu"

%struct.reftable_block_source = type { ptr, ptr }
%struct.reftable_block = type { ptr, i64, %struct.reftable_block_source }
%struct.reftable_reader = type { ptr, %struct.reftable_block_source, i64, i32, i32, i64, i64, i32, i32, %struct.reftable_reader_offsets, %struct.reftable_reader_offsets, %struct.reftable_reader_offsets, i64 }
%struct.reftable_reader_offsets = type { i32, i64, i64 }
%struct.block_iter = type { i32, ptr, i64, i32, %struct.reftable_buf, %struct.reftable_buf }
%struct.reftable_buf = type { i64, i64, ptr }
%struct.table_iter = type { ptr, i8, i64, %struct.block_reader, %struct.block_iter, i32 }
%struct.block_reader = type { i32, %struct.reftable_block, i32, ptr, ptr, i64, i32, ptr, i16, i32 }
%struct.reftable_record = type { i8, %union.anon }
%union.anon = type { %struct.reftable_log_record }
%struct.reftable_log_record = type { ptr, i64, i64, i32, %union.anon.2 }
%union.anon.2 = type { %struct.anon.3 }
%struct.anon.3 = type { [32 x i8], [32 x i8], ptr, ptr, i64, i16, ptr, i64 }
%struct.reftable_ref_record = type { ptr, i64, i64, i32, %union.anon.0 }
%union.anon.0 = type { ptr, [56 x i8] }

; Function Attrs: nounwind uwtable
define internal i32 @table_iter_next_block(ptr noundef %0) #0 {
  %2 = alloca i32, align 4
  %3 = alloca ptr, align 8
  %4 = alloca i64, align 8
  %5 = alloca i32, align 4
  %6 = alloca i32, align 4
  store ptr %0, ptr %3, align 8, !tbaa !47
  call void @llvm.lifetime.start.p0(i64 8, ptr %4) #9
  %7 = load ptr, ptr %3, align 8, !tbaa !47
  %8 = getelementptr inbounds nuw %struct.table_iter, ptr %7, i32 0, i32 2
  %9 = load i64, ptr %8, align 8, !tbaa !97
  %10 = load ptr, ptr %3, align 8, !tbaa !47
  %11 = getelementptr inbounds nuw %struct.table_iter, ptr %10, i32 0, i32 3
  %12 = getelementptr inbounds nuw %struct.block_reader, ptr %11, i32 0, i32 9
  %13 = load i32, ptr %12, align 4, !tbaa !98
  %14 = zext i32 %13 to i64
  %15 = add i64 %9, %14
  store i64 %15, ptr %4, align 8, !tbaa !17
  call void @llvm.lifetime.start.p0(i64 4, ptr %5) #9
  %16 = load ptr, ptr %3, align 8, !tbaa !47
  %17 = getelementptr inbounds nuw %struct.table_iter, ptr %16, i32 0, i32 0
  %18 = load ptr, ptr %17, align 8, !tbaa !49
  %19 = load ptr, ptr %3, align 8, !tbaa !47
  %20 = getelementptr inbounds nuw %struct.table_iter, ptr %19, i32 0, i32 3
  %21 = load i64, ptr %4, align 8, !tbaa !17
  %22 = load ptr, ptr %3, align 8, !tbaa !47
  %23 = getelementptr inbounds nuw %struct.table_iter, ptr %22, i32 0, i32 1
  %24 = load i8, ptr %23, align 8, !tbaa !99
  %25 = call i32 @reader_init_block_reader(ptr noundef %18, ptr noundef %20, i64 noundef %21, i8 noundef zeroext %24)
  store i32 %25, ptr %5, align 4, !tbaa !19
  %26 = load i32, ptr %5, align 4, !tbaa !19
  %27 = icmp sgt i32 %26, 0
  br i1 %27, label %28, label %31

28:                                               ; preds = %1
  %29 = load ptr, ptr %3, align 8, !tbaa !47
  %30 = getelementptr inbounds nuw %struct.table_iter, ptr %29, i32 0, i32 5
  store i32 1, ptr %30, align 8, !tbaa !100
  br label %31

31:                                               ; preds = %28, %1
  %32 = load i32, ptr %5, align 4, !tbaa !19
  %33 = icmp ne i32 %32, 0
  br i1 %33, label %34, label %36

34:                                               ; preds = %31
  %35 = load i32, ptr %5, align 4, !tbaa !19
  store i32 %35, ptr %2, align 4
  store i32 1, ptr %6, align 4
  br label %46

36:                                               ; preds = %31
  %37 = load i64, ptr %4, align 8, !tbaa !17
  %38 = load ptr, ptr %3, align 8, !tbaa !47
  %39 = getelementptr inbounds nuw %struct.table_iter, ptr %38, i32 0, i32 2
  store i64 %37, ptr %39, align 8, !tbaa !97
  %40 = load ptr, ptr %3, align 8, !tbaa !47
  %41 = getelementptr inbounds nuw %struct.table_iter, ptr %40, i32 0, i32 5
  store i32 0, ptr %41, align 8, !tbaa !100
  %42 = load ptr, ptr %3, align 8, !tbaa !47
  %43 = getelementptr inbounds nuw %struct.table_iter, ptr %42, i32 0, i32 4
  %44 = load ptr, ptr %3, align 8, !tbaa !47
  %45 = getelementptr inbounds nuw %struct.table_iter, ptr %44, i32 0, i32 3
  call void @block_iter_seek_start(ptr noundef %43, ptr noundef %45)
  store i32 0, ptr %2, align 4
  store i32 1, ptr %6, align 4
  br label %46

46:                                               ; preds = %36, %34
  call void @llvm.lifetime.end.p0(i64 4, ptr %5) #9
  call void @llvm.lifetime.end.p0(i64 8, ptr %4) #9
  %47 = load i32, ptr %2, align 4
  ret i32 %47
}

; Function Attrs: nounwind uwtable
define internal i32 @table_iter_next_in_block(ptr noundef %0, ptr noundef %1) #0 {
  %3 = alloca ptr, align 8
  %4 = alloca ptr, align 8
  %5 = alloca i32, align 4
  store ptr %0, ptr %3, align 8, !tbaa !47
  store ptr %1, ptr %4, align 8, !tbaa !101
  call void @llvm.lifetime.start.p0(i64 4, ptr %5) #9
  %6 = load ptr, ptr %3, align 8, !tbaa !47
  %7 = getelementptr inbounds nuw %struct.table_iter, ptr %6, i32 0, i32 4
  %8 = load ptr, ptr %4, align 8, !tbaa !101
  %9 = call i32 @block_iter_next(ptr noundef %7, ptr noundef %8)
  store i32 %9, ptr %5, align 4, !tbaa !19
  %10 = load i32, ptr %5, align 4, !tbaa !19
  %11 = icmp eq i32 %10, 0
  br i1 %11, label %12, label %28

12:                                               ; preds = %2
  %13 = load ptr, ptr %4, align 8, !tbaa !101
  %14 = call zeroext i8 @reftable_record_type(ptr noundef %13)
  %15 = zext i8 %14 to i32
  %16 = icmp eq i32 %15, 114
  br i1 %16, label %17, label %28

17:                                               ; preds = %12
  %18 = load ptr, ptr %3, align 8, !tbaa !47
  %19 = getelementptr inbounds nuw %struct.table_iter, ptr %18, i32 0, i32 0
  %20 = load ptr, ptr %19, align 8, !tbaa !49
  %21 = getelementptr inbounds nuw %struct.reftable_reader, ptr %20, i32 0, i32 5
  %22 = load i64, ptr %21, align 8, !tbaa !64
  %23 = load ptr, ptr %4, align 8, !tbaa !101
  %24 = getelementptr inbounds nuw %struct.reftable_record, ptr %23, i32 0, i32 1
  %25 = getelementptr inbounds nuw %struct.reftable_ref_record, ptr %24, i32 0, i32 2
  %26 = load i64, ptr %25, align 8, !tbaa !35
  %27 = add i64 %26, %22
  store i64 %27, ptr %25, align 8, !tbaa !35
  br label %28

28:                                               ; preds = %17, %12, %2
  %29 = load i32, ptr %5, align 4, !tbaa !19
  call void @llvm.lifetime.end.p0(i64 4, ptr %5) #9
  ret i32 %29
}

; Function Attrs: inlinehint nounwind uwtable
define internal zeroext i8 @reftable_record_type(ptr noundef %0) #5 {
  %2 = alloca ptr, align 8
  store ptr %0, ptr %2, align 8, !tbaa !101
  %3 = load ptr, ptr %2, align 8, !tbaa !101
  %4 = getelementptr inbounds nuw %struct.reftable_record, ptr %3, i32 0, i32 0
  %5 = load i8, ptr %4, align 8, !tbaa !76
  ret i8 %5
}

; Function Attrs: nounwind uwtable
define internal i32 @table_iter_next(ptr noundef %0, ptr noundef %1) #0 {
  %3 = alloca i32, align 4
  %4 = alloca ptr, align 8
  %5 = alloca ptr, align 8
  %6 = alloca i32, align 4
  %7 = alloca i32, align 4
  store ptr %0, ptr %4, align 8, !tbaa !47
  store ptr %1, ptr %5, align 8, !tbaa !101
  %8 = load ptr, ptr %5, align 8, !tbaa !101
  %9 = call zeroext i8 @reftable_record_type(ptr noundef %8)
  %10 = zext i8 %9 to i32
  %11 = load ptr, ptr %4, align 8, !tbaa !47
  %12 = getelementptr inbounds nuw %struct.table_iter, ptr %11, i32 0, i32 1
  %13 = load i8, ptr %12, align 8, !tbaa !99
  %14 = zext i8 %13 to i32
  %15 = icmp ne i32 %10, %14
  br i1 %15, label %16, label %17

16:                                               ; preds = %2
  store i32 -6, ptr %3, align 4
  br label %45

17:                                               ; preds = %2
  br label %18

18:                                               ; preds = %17, %44
  call void @llvm.lifetime.start.p0(i64 4, ptr %6) #9
  %19 = load ptr, ptr %4, align 8, !tbaa !47
  %20 = getelementptr inbounds nuw %struct.table_iter, ptr %19, i32 0, i32 5
  %21 = load i32, ptr %20, align 8, !tbaa !100
  %22 = icmp ne i32 %21, 0
  br i1 %22, label %23, label %24

23:                                               ; preds = %18
  store i32 1, ptr %3, align 4
  store i32 1, ptr %7, align 4
  br label %42

24:                                               ; preds = %18
  %25 = load ptr, ptr %4, align 8, !tbaa !47
  %26 = load ptr, ptr %5, align 8, !tbaa !101
  %27 = call i32 @table_iter_next_in_block(ptr noundef %25, ptr noundef %26)
  store i32 %27, ptr %6, align 4, !tbaa !19
  %28 = load i32, ptr %6, align 4, !tbaa !19
  %29 = icmp sle i32 %28, 0
  br i1 %29, label %30, label %32

30:                                               ; preds = %24
  %31 = load i32, ptr %6, align 4, !tbaa !19
  store i32 %31, ptr %3, align 4
  store i32 1, ptr %7, align 4
  br label %42

32:                                               ; preds = %24
  %33 = load ptr, ptr %4, align 8, !tbaa !47
  %34 = call i32 @table_iter_next_block(ptr noundef %33)
  store i32 %34, ptr %6, align 4, !tbaa !19
  %35 = load i32, ptr %6, align 4, !tbaa !19
  %36 = icmp ne i32 %35, 0
  br i1 %36, label %37, label %41

37:                                               ; preds = %32
  %38 = load ptr, ptr %4, align 8, !tbaa !47
  %39 = getelementptr inbounds nuw %struct.table_iter, ptr %38, i32 0, i32 5
  store i32 1, ptr %39, align 8, !tbaa !100
  %40 = load i32, ptr %6, align 4, !tbaa !19
  store i32 %40, ptr %3, align 4
  store i32 1, ptr %7, align 4
  br label %42

41:                                               ; preds = %32
  store i32 0, ptr %7, align 4
  br label %42

42:                                               ; preds = %41, %37, %30, %23
  call void @llvm.lifetime.end.p0(i64 4, ptr %6) #9
  %43 = load i32, ptr %7, align 4
  switch i32 %43, label %47 [
    i32 0, label %44
    i32 1, label %45
  ]

44:                                               ; preds = %42
  br label %18

45:                                               ; preds = %42, %16
  %46 = load i32, ptr %3, align 4
  ret i32 %46

47:                                               ; preds = %42
  unreachable
}