; Function Attrs: nounwind uwtable
define internal fastcc i32 @table_iter_next(ptr noundef %0, ptr noundef %1) unnamed_addr #0 {
  %.val = load i8, ptr %1, align 8, !tbaa !58
  %3 = getelementptr inbounds nuw i8, ptr %0, i64 8
  %4 = load i8, ptr %3, align 8, !tbaa !67
  %.not = icmp eq i8 %.val, %4
  br i1 %.not, label %.preheader, label %.thread

.preheader:                                       ; preds = %2
  %5 = getelementptr inbounds nuw i8, ptr %0, i64 200
  %6 = load i32, ptr %5, align 8, !tbaa !69
  %.not1526 = icmp eq i32 %6, 0
  br i1 %.not1526, label %.lr.ph, label %.thread

.lr.ph:                                           ; preds = %.preheader
  %7 = getelementptr inbounds nuw i8, ptr %0, i64 120
  %8 = getelementptr inbounds nuw i8, ptr %0, i64 16
  %9 = getelementptr inbounds nuw i8, ptr %0, i64 24
  %10 = getelementptr inbounds nuw i8, ptr %0, i64 116
  br label %11

11:                                               ; preds = %.lr.ph, %32
  %12 = tail call i32 @block_iter_next(ptr noundef nonnull %7, ptr noundef nonnull %1) #12
  %13 = icmp eq i32 %12, 0
  br i1 %13, label %14, label %table_iter_next_in_block.exit

14:                                               ; preds = %11
  %.val.i = load i8, ptr %1, align 8, !tbaa !58
  %15 = icmp eq i8 %.val.i, 114
  br i1 %15, label %16, label %.thread

16:                                               ; preds = %14
  %17 = load ptr, ptr %0, align 8, !tbaa !33
  %18 = getelementptr inbounds nuw i8, ptr %17, i64 40
  %19 = load i64, ptr %18, align 8, !tbaa !46
  %20 = getelementptr inbounds nuw i8, ptr %1, i64 24
  %21 = load i64, ptr %20, align 8, !tbaa !30
  %22 = add i64 %21, %19
  store i64 %22, ptr %20, align 8, !tbaa !30
  br label %.thread

table_iter_next_in_block.exit:                    ; preds = %11
  %23 = icmp slt i32 %12, 1
  br i1 %23, label %.thread, label %24

24:                                               ; preds = %table_iter_next_in_block.exit
  %25 = load i64, ptr %8, align 8, !tbaa !68
  %26 = load i32, ptr %10, align 4, !tbaa !75
  %27 = zext i32 %26 to i64
  %28 = add i64 %25, %27
  %29 = load ptr, ptr %0, align 8, !tbaa !33
  %30 = load i8, ptr %3, align 8, !tbaa !67
  %31 = tail call i32 @reader_init_block_reader(ptr noundef %29, ptr noundef nonnull %9, i64 noundef %28, i8 noundef zeroext %30)
  %.not.i = icmp eq i32 %31, 0
  br i1 %.not.i, label %32, label %.loopexit

.loopexit:                                        ; preds = %24
  store i32 1, ptr %5, align 8, !tbaa !69
  br label %.thread

32:                                               ; preds = %24
  store i64 %28, ptr %8, align 8, !tbaa !68
  store i32 0, ptr %5, align 8, !tbaa !69
  tail call void @block_iter_seek_start(ptr noundef nonnull %7, ptr noundef nonnull %9) #12
  %33 = load i32, ptr %5, align 8, !tbaa !69
  %.not15 = icmp eq i32 %33, 0
  br i1 %.not15, label %11, label %.thread

.thread:                                          ; preds = %32, %table_iter_next_in_block.exit, %.preheader, %16, %14, %.loopexit, %2
  %.012 = phi i32 [ -6, %2 ], [ %31, %.loopexit ], [ 0, %14 ], [ 0, %16 ], [ 1, %.preheader ], [ 1, %32 ], [ %12, %table_iter_next_in_block.exit ]
  ret i32 %.012
}